target datalayout = "e-m:e-p270:32:32-p271:32:32-p272:64:64-i64:64-i128:128-f80:128-n8:16:32:64-S128"
target triple = "x86_64-pc-linux-gnu"

%struct._zend_refcounted_h = type { i32, %union.anon }
%union.anon = type { i32 }
%struct._zval_struct = type { %union._zend_value, %union.anon.3, %union.anon.6 }
%union._zend_value = type { i64 }
%union.anon.3 = type { i32 }
%union.anon.6 = type { i32 }
%struct._php_hash_ops = type { ptr, ptr, ptr, ptr, ptr, ptr, ptr, ptr, i64, i64, i64, i8 }
%struct._php_hashcontext_object = type { ptr, ptr, i64, ptr, %struct._zend_object }
%struct._zend_object = type { %struct._zend_refcounted_h, i32, i32, ptr, ptr, ptr, [1 x %struct._zval_struct] }

; Function Attrs: inlinehint nounwind uwtable
define internal ptr @php_hashcontext_from_object(ptr noundef %0) #7 {
  %2 = alloca ptr, align 8
  store ptr %0, ptr %2, align 8, !tbaa !59
  %3 = load ptr, ptr %2, align 8, !tbaa !59
  %4 = getelementptr inbounds %struct._zend_object, ptr %3, i64 1
  %5 = getelementptr inbounds %struct._php_hashcontext_object, ptr %4, i64 -1
  ret ptr %5
}

; Function Attrs: nounwind uwtable
define internal void @php_hashcontext_dtor(ptr noundef %0) #0 {
  %2 = alloca ptr, align 8
  %3 = alloca ptr, align 8
  store ptr %0, ptr %2, align 8, !tbaa !59
  call void @llvm.lifetime.start.p0(i64 8, ptr %3) #16
  %4 = load ptr, ptr %2, align 8, !tbaa !59
  %5 = call ptr @php_hashcontext_from_object(ptr noundef %4)
  store ptr %5, ptr %3, align 8, !tbaa !24
  %6 = load ptr, ptr %3, align 8, !tbaa !24
  %7 = getelementptr inbounds nuw %struct._php_hashcontext_object, ptr %6, i32 0, i32 1
  %8 = load ptr, ptr %7, align 8, !tbaa !26
  %9 = icmp ne ptr %8, null
  br i1 %9, label %10, label %16

10:                                               ; preds = %1
  %11 = load ptr, ptr %3, align 8, !tbaa !24
  %12 = getelementptr inbounds nuw %struct._php_hashcontext_object, ptr %11, i32 0, i32 1
  %13 = load ptr, ptr %12, align 8, !tbaa !26
  call void @_efree(ptr noundef %13)
  %14 = load ptr, ptr %3, align 8, !tbaa !24
  %15 = getelementptr inbounds nuw %struct._php_hashcontext_object, ptr %14, i32 0, i32 1
  store ptr null, ptr %15, align 8, !tbaa !26
  br label %16

16:                                               ; preds = %10, %1
  %17 = load ptr, ptr %3, align 8, !tbaa !24
  %18 = getelementptr inbounds nuw %struct._php_hashcontext_object, ptr %17, i32 0, i32 3
  %19 = load ptr, ptr %18, align 8, !tbaa !101
  %20 = icmp ne ptr %19, null
  br i1 %20, label %21, label %35

21:                                               ; preds = %16
  %22 = load ptr, ptr %3, align 8, !tbaa !24
  %23 = getelementptr inbounds nuw %struct._php_hashcontext_object, ptr %22, i32 0, i32 3
  %24 = load ptr, ptr %23, align 8, !tbaa !101
  %25 = load ptr, ptr %3, align 8, !tbaa !24
  %26 = getelementptr inbounds nuw %struct._php_hashcontext_object, ptr %25, i32 0, i32 0
  %27 = load ptr, ptr %26, align 8, !tbaa !32
  %28 = getelementptr inbounds nuw %struct._php_hash_ops, ptr %27, i32 0, i32 9
  %29 = load i64, ptr %28, align 8, !tbaa !98
  call void @explicit_bzero(ptr noundef %24, i64 noundef %29) #16
  %30 = load ptr, ptr %3, align 8, !tbaa !24
  %31 = getelementptr inbounds nuw %struct._php_hashcontext_object, ptr %30, i32 0, i32 3
  %32 = load ptr, ptr %31, align 8, !tbaa !101
  call void @_efree(ptr noundef %32)
  %33 = load ptr, ptr %3, align 8, !tbaa !24
  %34 = getelementptr inbounds nuw %struct._php_hashcontext_object, ptr %33, i32 0, i32 3
  store ptr null, ptr %34, align 8, !tbaa !101
  br label %35

35:                                               ; preds = %21, %16
  call void @llvm.lifetime.end.p0(i64 8, ptr %3) #16
  ret void
}